target datalayout = "e-m:e-p270:32:32-p271:32:32-p272:64:64-i64:64-i128:128-f80:128-n8:16:32:64-S128"
target triple = "x86_64-pc-linux-gnu"

%struct.sview_config_t = type { ptr, ptr, ptr, ptr, ptr, ptr, ptr, i16, i16, i8, i16, i32, i32, i32, i8, i32, i32, i32, i32, [10 x ptr], [10 x %struct.page_opts_t], [10 x i8], i16, i8, i8, i8, i8, i16, i32 }
%struct.page_opts_t = type { ptr, i8, ptr, ptr }

@working_sview_config = external global %struct.sview_config_t, align 8
@get_new_info_job_step.last = internal global i64 0, align 8
@get_new_info_job_step.changed = internal global i8 0, align 1
@g_step_info_ptr = external global ptr, align 8

; Function Attrs: nounwind uwtable
define dso_local i32 @get_new_info_job_step(ptr noundef %0, i32 noundef %1) #0 {
  %3 = alloca ptr, align 8
  %4 = alloca i32, align 4
  %5 = alloca ptr, align 8
  %6 = alloca i16, align 2
  %7 = alloca i32, align 4
  %8 = alloca i64, align 8
  store ptr %0, ptr %3, align 8
  store i32 %1, ptr %4, align 4
  call void @llvm.lifetime.start.p0(i64 8, ptr %5) #11
  store ptr null, ptr %5, align 8
  call void @llvm.lifetime.start.p0(i64 2, ptr %6) #11
  store i16 0, ptr %6, align 2
  call void @llvm.lifetime.start.p0(i64 4, ptr %7) #11
  store i32 1900, ptr %7, align 4
  call void @llvm.lifetime.start.p0(i64 8, ptr %8) #11
  %9 = call i64 @time(ptr noundef null) #11
  store i64 %9, ptr %8, align 8
  %10 = load ptr, ptr @g_step_info_ptr, align 8
  %11 = icmp ne ptr %10, null
  br i1 %11, label %12, label %35

12:                                               ; preds = %2
  %13 = load i32, ptr %4, align 4
  %14 = icmp ne i32 %13, 0
  br i1 %14, label %35, label %15

15:                                               ; preds = %12
  %16 = load i64, ptr %8, align 8
  %17 = load i64, ptr @get_new_info_job_step.last, align 8
  %18 = sub nsw i64 %16, %17
  %19 = load i16, ptr getelementptr inbounds nuw (%struct.sview_config_t, ptr @working_sview_config, i32 0, i32 22), align 2
  %20 = zext i16 %19 to i64
  %21 = icmp slt i64 %18, %20
  br i1 %21, label %22, label %35

22:                                               ; preds = %15
  %23 = load ptr, ptr %3, align 8
  %24 = load ptr, ptr %23, align 8
  %25 = load ptr, ptr @g_step_info_ptr, align 8
  %26 = icmp ne ptr %24, %25
  br i1 %26, label %27, label %28

27:                                               ; preds = %22
  store i32 0, ptr %7, align 4
  br label %28

28:                                               ; preds = %27, %22
  %29 = load ptr, ptr @g_step_info_ptr, align 8
  %30 = load ptr, ptr %3, align 8
  store ptr %29, ptr %30, align 8
  %31 = load i8, ptr @get_new_info_job_step.changed, align 1, !range !18, !noundef !19
  %32 = trunc i8 %31 to i1
  br i1 %32, label %33, label %34

33:                                               ; preds = %28
  store i32 0, ptr %7, align 4
  br label %34

34:                                               ; preds = %33, %28
  br label %74

35:                                               ; preds = %15, %12, %2
  %36 = load i64, ptr %8, align 8
  store i64 %36, ptr @get_new_info_job_step.last, align 8
  %37 = load i16, ptr %6, align 2
  %38 = zext i16 %37 to i64
  %39 = or i64 %38, 1
  %40 = trunc i64 %39 to i16
  store i16 %40, ptr %6, align 2
  %41 = load ptr, ptr @g_step_info_ptr, align 8
  %42 = icmp ne ptr %41, null
  br i1 %42, label %43, label %58

43:                                               ; preds = %35
  %44 = load i16, ptr %6, align 2
  %45 = call i32 @slurm_get_job_steps(i64 noundef 0, i32 noundef -2, i32 noundef -2, ptr noundef %5, i16 noundef zeroext %44)
  store i32 %45, ptr %7, align 4
  %46 = load i32, ptr %7, align 4
  %47 = icmp eq i32 %46, 0
  br i1 %47, label %48, label %50

48:                                               ; preds = %43
  %49 = load ptr, ptr @g_step_info_ptr, align 8
  call void @slurm_free_job_step_info_response_msg(ptr noundef %49)
  store i8 1, ptr @get_new_info_job_step.changed, align 1
  br label %57

50:                                               ; preds = %43
  %51 = call ptr @__errno_location() #12
  %52 = load i32, ptr %51, align 4
  %53 = icmp eq i32 %52, 1900
  br i1 %53, label %54, label %56

54:                                               ; preds = %50
  store i32 1900, ptr %7, align 4
  %55 = load ptr, ptr @g_step_info_ptr, align 8
  store ptr %55, ptr %5, align 8
  store i8 0, ptr @get_new_info_job_step.changed, align 1
  br label %56

56:                                               ; preds = %54, %50
  br label %57

57:                                               ; preds = %56, %48
  br label %61

58:                                               ; preds = %35
  store ptr null, ptr %5, align 8
  %59 = load i16, ptr %6, align 2
  %60 = call i32 @slurm_get_job_steps(i64 noundef 0, i32 noundef -2, i32 noundef -2, ptr noundef %5, i16 noundef zeroext %59)
  store i32 %60, ptr %7, align 4
  store i8 1, ptr @get_new_info_job_step.changed, align 1
  br label %61

61:                                               ; preds = %58, %57
  %62 = load ptr, ptr %5, align 8
  store ptr %62, ptr @g_step_info_ptr, align 8
  %63 = load ptr, ptr @g_step_info_ptr, align 8
  %64 = icmp ne ptr %63, null
  br i1 %64, label %65, label %71

65:                                               ; preds = %61
  %66 = load ptr, ptr %3, align 8
  %67 = load ptr, ptr %66, align 8
  %68 = load ptr, ptr @g_step_info_ptr, align 8
  %69 = icmp ne ptr %67, %68
  br i1 %69, label %70, label %71

70:                                               ; preds = %65
  store i32 0, ptr %7, align 4
  br label %71

71:                                               ; preds = %70, %65, %61
  %72 = load ptr, ptr @g_step_info_ptr, align 8
  %73 = load ptr, ptr %3, align 8
  store ptr %72, ptr %73, align 8
  br label %74

74:                                               ; preds = %71, %34
  %75 = load i32, ptr %7, align 4
  call void @llvm.lifetime.end.p0(i64 8, ptr %8) #11
  call void @llvm.lifetime.end.p0(i64 4, ptr %7) #11
  call void @llvm.lifetime.end.p0(i64 2, ptr %6) #11
  call void @llvm.lifetime.end.p0(i64 8, ptr %5) #11
  ret i32 %75
}