; Function Attrs: nounwind uwtable
define dso_local i32 @get_new_info_job_step(ptr noundef captures(none) %0, i32 noundef %1) local_unnamed_addr #0 {
  %3 = alloca ptr, align 8
  call void @llvm.lifetime.start.p0(i64 8, ptr nonnull %3) #16
  store ptr null, ptr %3, align 8
  %4 = tail call i64 @time(ptr noundef null) #16
  %5 = load ptr, ptr @g_step_info_ptr, align 8
  %6 = icmp eq ptr %5, null
  %7 = icmp ne i32 %1, 0
  %or.cond = or i1 %7, %6
  br i1 %or.cond, label %16, label %8

8:                                                ; preds = %2
  %9 = load i64, ptr @get_new_info_job_step.last, align 8
  %10 = sub nsw i64 %4, %9
  %11 = load i16, ptr getelementptr inbounds nuw (i8, ptr @working_sview_config, i64 506), align 2
  %12 = zext i16 %11 to i64
  %13 = icmp slt i64 %10, %12
  br i1 %13, label %14, label %.thread

.thread:                                          ; preds = %8
  store i64 %4, ptr @get_new_info_job_step.last, align 8
  br label %17

14:                                               ; preds = %8
  %15 = load ptr, ptr %0, align 8
  %.not = icmp eq ptr %15, %5
  %spec.select = select i1 %.not, i32 1900, i32 0
  store ptr %5, ptr %0, align 8
  %.b16 = load i1, ptr @get_new_info_job_step.changed, align 1
  %spec.select21 = select i1 %.b16, i32 0, i32 %spec.select
  br label %35

16:                                               ; preds = %2
  store i64 %4, ptr @get_new_info_job_step.last, align 8
  br i1 %6, label %28, label %17

17:                                               ; preds = %.thread, %16
  %18 = call i32 @slurm_get_job_steps(i64 noundef 0, i32 noundef -2, i32 noundef -2, ptr noundef nonnull %3, i16 noundef zeroext 1) #16
  %19 = icmp eq i32 %18, 0
  br i1 %19, label %20, label %22

20:                                               ; preds = %17
  %21 = load ptr, ptr @g_step_info_ptr, align 8
  call void @slurm_free_job_step_info_response_msg(ptr noundef %21) #16
  br label %thread-pre-split.sink.split

22:                                               ; preds = %17
  %23 = tail call ptr @__errno_location() #17
  %24 = load i32, ptr %23, align 4
  %25 = icmp eq i32 %24, 1900
  br i1 %25, label %26, label %thread-pre-split

26:                                               ; preds = %22
  %27 = load ptr, ptr @g_step_info_ptr, align 8
  store i1 false, ptr @get_new_info_job_step.changed, align 1
  br label %30

28:                                               ; preds = %16
  store ptr null, ptr %3, align 8
  %29 = call i32 @slurm_get_job_steps(i64 noundef 0, i32 noundef -2, i32 noundef -2, ptr noundef nonnull %3, i16 noundef zeroext 1) #16
  br label %thread-pre-split.sink.split

thread-pre-split.sink.split:                      ; preds = %20, %28
  %.2.ph.ph = phi i32 [ 0, %20 ], [ %29, %28 ]
  store i1 true, ptr @get_new_info_job_step.changed, align 1
  br label %thread-pre-split

thread-pre-split:                                 ; preds = %thread-pre-split.sink.split, %22
  %.2.ph = phi i32 [ %18, %22 ], [ %.2.ph.ph, %thread-pre-split.sink.split ]
  %.pr = load ptr, ptr %3, align 8
  br label %30

30:                                               ; preds = %thread-pre-split, %26
  %31 = phi ptr [ %.pr, %thread-pre-split ], [ %27, %26 ]
  %.2 = phi i32 [ %.2.ph, %thread-pre-split ], [ 1900, %26 ]
  store ptr %31, ptr @g_step_info_ptr, align 8
  %.not18 = icmp eq ptr %31, null
  br i1 %.not18, label %34, label %32

32:                                               ; preds = %30
  %33 = load ptr, ptr %0, align 8
  %.not19 = icmp eq ptr %33, %31
  %spec.select20 = select i1 %.not19, i32 %.2, i32 0
  br label %34

34:                                               ; preds = %32, %30
  %.3 = phi i32 [ %.2, %30 ], [ %spec.select20, %32 ]
  store ptr %31, ptr %0, align 8
  br label %35

35:                                               ; preds = %14, %34
  %.1 = phi i32 [ %.3, %34 ], [ %spec.select21, %14 ]
  call void @llvm.lifetime.end.p0(i64 8, ptr nonnull %3) #16
  ret i32 %.1
}